; Function Attrs: mustprogress uwtable
define noundef zeroext i1 @_ZNK10open_spiel10battleship15BattleshipState19AllPlayersShipsSankEi(ptr noundef nonnull readonly align 8 captures(none) dereferenceable(104) %0, i32 noundef %1) local_unnamed_addr #3 align 2 {
  %3 = getelementptr inbounds nuw i8, ptr %0, i64 64
  %4 = load ptr, ptr %3, align 8
  %5 = getelementptr inbounds nuw i8, ptr %4, i64 288
  %6 = load ptr, ptr %5, align 8
  %7 = getelementptr inbounds nuw i8, ptr %4, i64 296
  %8 = load ptr, ptr %7, align 8
  %.not9 = icmp eq ptr %6, %8
  br i1 %.not9, label %._crit_edge, label %.lr.ph

.lr.ph:                                           ; preds = %2, %.lr.ph
  %.sroa.06.010 = phi ptr [ %10, %.lr.ph ], [ %6, %2 ]
  %9 = tail call noundef zeroext i1 @_ZNK10open_spiel10battleship15BattleshipState11DidShipSinkERKNS0_4ShipEi(ptr noundef nonnull align 8 dereferenceable(104) %0, ptr noundef nonnull align 8 dereferenceable(16) %.sroa.06.010, i32 noundef %1)
  %10 = getelementptr inbounds nuw i8, ptr %.sroa.06.010, i64 16
  %.not = icmp ne ptr %10, %8
  %or.cond.not = select i1 %9, i1 %.not, i1 false
  br i1 %or.cond.not, label %.lr.ph, label %._crit_edge

._crit_edge:                                      ; preds = %.lr.ph, %2
  %.not.lcssa = phi i1 [ true, %2 ], [ %9, %.lr.ph ]
  ret i1 %.not.lcssa
}